target datalayout = "e-m:e-p270:32:32-p271:32:32-p272:64:64-i64:64-i128:128-f80:128-n8:16:32:64-S128"
target triple = "x86_64-unknown-linux-gnu"

%"class.std::vector.397" = type { %"struct.std::_Vector_base.398" }
%"struct.std::_Vector_base.398" = type { %"struct.std::_Vector_base<std::__cxx11::basic_string<char>, std::allocator<std::__cxx11::basic_string<char>>>::_Vector_impl" }
%"struct.std::_Vector_base<std::__cxx11::basic_string<char>, std::allocator<std::__cxx11::basic_string<char>>>::_Vector_impl" = type { %"struct.std::_Vector_base<std::__cxx11::basic_string<char>, std::allocator<std::__cxx11::basic_string<char>>>::_Vector_impl_data" }
%"struct.std::_Vector_base<std::__cxx11::basic_string<char>, std::allocator<std::__cxx11::basic_string<char>>>::_Vector_impl_data" = type { ptr, ptr, ptr }
%"class.std::__cxx11::basic_string" = type { %"struct.std::__cxx11::basic_string<char>::_Alloc_hider", i64, %union.anon }
%"struct.std::__cxx11::basic_string<char>::_Alloc_hider" = type { ptr }
%union.anon = type { i64, [8 x i8] }
%"class.cvc5::internal::Options" = type { %"class.std::unique_ptr.58", %"class.std::unique_ptr.66", %"class.std::unique_ptr.74", %"class.std::unique_ptr.82", %"class.std::unique_ptr.90", %"class.std::unique_ptr.98", %"class.std::unique_ptr.106", %"class.std::unique_ptr.114", %"class.std::unique_ptr.122", %"class.std::unique_ptr.130", %"class.std::unique_ptr.138", %"class.std::unique_ptr.146", %"class.std::unique_ptr.154", %"class.std::unique_ptr.162", %"class.std::unique_ptr.170", %"class.std::unique_ptr.178", %"class.std::unique_ptr.186", %"class.std::unique_ptr.194", %"class.std::unique_ptr.202", %"class.std::unique_ptr.210", %"class.std::unique_ptr.218", %"class.std::unique_ptr.226", %"class.std::unique_ptr.234", %"class.std::unique_ptr.242", ptr, ptr, ptr, ptr, ptr, ptr, ptr, ptr, ptr, ptr, ptr, ptr, ptr, ptr, ptr, ptr, ptr, ptr, ptr, ptr, ptr, ptr, ptr, ptr, %"class.std::unique_ptr.250" }
%"class.std::unique_ptr.58" = type { %"struct.std::__uniq_ptr_data.59" }
%"struct.std::__uniq_ptr_data.59" = type { %"class.std::__uniq_ptr_impl.60" }
%"class.std::__uniq_ptr_impl.60" = type { %"class.std::tuple.61" }
%"class.std::tuple.61" = type { %"struct.std::_Tuple_impl.62" }
%"struct.std::_Tuple_impl.62" = type { %"struct.std::_Head_base.65" }
%"struct.std::_Head_base.65" = type { ptr }
%"class.std::unique_ptr.66" = type { %"struct.std::__uniq_ptr_data.67" }
%"struct.std::__uniq_ptr_data.67" = type { %"class.std::__uniq_ptr_impl.68" }
%"class.std::__uniq_ptr_impl.68" = type { %"class.std::tuple.69" }
%"class.std::tuple.69" = type { %"struct.std::_Tuple_impl.70" }
%"struct.std::_Tuple_impl.70" = type { %"struct.std::_Head_base.73" }
%"struct.std::_Head_base.73" = type { ptr }
%"class.std::unique_ptr.74" = type { %"struct.std::__uniq_ptr_data.75" }
%"struct.std::__uniq_ptr_data.75" = type { %"class.std::__uniq_ptr_impl.76" }
%"class.std::__uniq_ptr_impl.76" = type { %"class.std::tuple.77" }
%"class.std::tuple.77" = type { %"struct.std::_Tuple_impl.78" }
%"struct.std::_Tuple_impl.78" = type { %"struct.std::_Head_base.81" }
%"struct.std::_Head_base.81" = type { ptr }
%"class.std::unique_ptr.82" = type { %"struct.std::__uniq_ptr_data.83" }
%"struct.std::__uniq_ptr_data.83" = type { %"class.std::__uniq_ptr_impl.84" }
%"class.std::__uniq_ptr_impl.84" = type { %"class.std::tuple.85" }
%"class.std::tuple.85" = type { %"struct.std::_Tuple_impl.86" }
%"struct.std::_Tuple_impl.86" = type { %"struct.std::_Head_base.89" }
%"struct.std::_Head_base.89" = type { ptr }
%"class.std::unique_ptr.90" = type { %"struct.std::__uniq_ptr_data.91" }
%"struct.std::__uniq_ptr_data.91" = type { %"class.std::__uniq_ptr_impl.92" }
%"class.std::__uniq_ptr_impl.92" = type { %"class.std::tuple.93" }
%"class.std::tuple.93" = type { %"struct.std::_Tuple_impl.94" }
%"struct.std::_Tuple_impl.94" = type { %"struct.std::_Head_base.97" }
%"struct.std::_Head_base.97" = type { ptr }
%"class.std::unique_ptr.98" = type { %"struct.std::__uniq_ptr_data.99" }
%"struct.std::__uniq_ptr_data.99" = type { %"class.std::__uniq_ptr_impl.100" }
%"class.std::__uniq_ptr_impl.100" = type { %"class.std::tuple.101" }
%"class.std::tuple.101" = type { %"struct.std::_Tuple_impl.102" }
%"struct.std::_Tuple_impl.102" = type { %"struct.std::_Head_base.105" }
%"struct.std::_Head_base.105" = type { ptr }
%"class.std::unique_ptr.106" = type { %"struct.std::__uniq_ptr_data.107" }
%"struct.std::__uniq_ptr_data.107" = type { %"class.std::__uniq_ptr_impl.108" }
%"class.std::__uniq_ptr_impl.108" = type { %"class.std::tuple.109" }
%"class.std::tuple.109" = type { %"struct.std::_Tuple_impl.110" }
%"struct.std::_Tuple_impl.110" = type { %"struct.std::_Head_base.113" }
%"struct.std::_Head_base.113" = type { ptr }
%"class.std::unique_ptr.114" = type { %"struct.std::__uniq_ptr_data.115" }
%"struct.std::__uniq_ptr_data.115" = type { %"class.std::__uniq_ptr_impl.116" }
%"class.std::__uniq_ptr_impl.116" = type { %"class.std::tuple.117" }
%"class.std::tuple.117" = type { %"struct.std::_Tuple_impl.118" }
%"struct.std::_Tuple_impl.118" = type { %"struct.std::_Head_base.121" }
%"struct.std::_Head_base.121" = type { ptr }
%"class.std::unique_ptr.122" = type { %"struct.std::__uniq_ptr_data.123" }
%"struct.std::__uniq_ptr_data.123" = type { %"class.std::__uniq_ptr_impl.124" }
%"class.std::__uniq_ptr_impl.124" = type { %"class.std::tuple.125" }
%"class.std::tuple.125" = type { %"struct.std::_Tuple_impl.126" }
%"struct.std::_Tuple_impl.126" = type { %"struct.std::_Head_base.129" }
%"struct.std::_Head_base.129" = type { ptr }
%"class.std::unique_ptr.130" = type { %"struct.std::__uniq_ptr_data.131" }
%"struct.std::__uniq_ptr_data.131" = type { %"class.std::__uniq_ptr_impl.132" }
%"class.std::__uniq_ptr_impl.132" = type { %"class.std::tuple.133" }
%"class.std::tuple.133" = type { %"struct.std::_Tuple_impl.134" }
%"struct.std::_Tuple_impl.134" = type { %"struct.std::_Head_base.137" }
%"struct.std::_Head_base.137" = type { ptr }
%"class.std::unique_ptr.138" = type { %"struct.std::__uniq_ptr_data.139" }
%"struct.std::__uniq_ptr_data.139" = type { %"class.std::__uniq_ptr_impl.140" }
%"class.std::__uniq_ptr_impl.140" = type { %"class.std::tuple.141" }
%"class.std::tuple.141" = type { %"struct.std::_Tuple_impl.142" }
%"struct.std::_Tuple_impl.142" = type { %"struct.std::_Head_base.145" }
%"struct.std::_Head_base.145" = type { ptr }
%"class.std::unique_ptr.146" = type { %"struct.std::__uniq_ptr_data.147" }
%"struct.std::__uniq_ptr_data.147" = type { %"class.std::__uniq_ptr_impl.148" }
%"class.std::__uniq_ptr_impl.148" = type { %"class.std::tuple.149" }
%"class.std::tuple.149" = type { %"struct.std::_Tuple_impl.150" }
%"struct.std::_Tuple_impl.150" = type { %"struct.std::_Head_base.153" }
%"struct.std::_Head_base.153" = type { ptr }
%"class.std::unique_ptr.154" = type { %"struct.std::__uniq_ptr_data.155" }
%"struct.std::__uniq_ptr_data.155" = type { %"class.std::__uniq_ptr_impl.156" }
%"class.std::__uniq_ptr_impl.156" = type { %"class.std::tuple.157" }
%"class.std::tuple.157" = type { %"struct.std::_Tuple_impl.158" }
%"struct.std::_Tuple_impl.158" = type { %"struct.std::_Head_base.161" }
%"struct.std::_Head_base.161" = type { ptr }
%"class.std::unique_ptr.162" = type { %"struct.std::__uniq_ptr_data.163" }
%"struct.std::__uniq_ptr_data.163" = type { %"class.std::__uniq_ptr_impl.164" }
%"class.std::__uniq_ptr_impl.164" = type { %"class.std::tuple.165" }
%"class.std::tuple.165" = type { %"struct.std::_Tuple_impl.166" }
%"struct.std::_Tuple_impl.166" = type { %"struct.std::_Head_base.169" }
%"struct.std::_Head_base.169" = type { ptr }
%"class.std::unique_ptr.170" = type { %"struct.std::__uniq_ptr_data.171" }
%"struct.std::__uniq_ptr_data.171" = type { %"class.std::__uniq_ptr_impl.172" }
%"class.std::__uniq_ptr_impl.172" = type { %"class.std::tuple.173" }
%"class.std::tuple.173" = type { %"struct.std::_Tuple_impl.174" }
%"struct.std::_Tuple_impl.174" = type { %"struct.std::_Head_base.177" }
%"struct.std::_Head_base.177" = type { ptr }
%"class.std::unique_ptr.178" = type { %"struct.std::__uniq_ptr_data.179" }
%"struct.std::__uniq_ptr_data.179" = type { %"class.std::__uniq_ptr_impl.180" }
%"class.std::__uniq_ptr_impl.180" = type { %"class.std::tuple.181" }
%"class.std::tuple.181" = type { %"struct.std::_Tuple_impl.182" }
%"struct.std::_Tuple_impl.182" = type { %"struct.std::_Head_base.185" }
%"struct.std::_Head_base.185" = type { ptr }
%"class.std::unique_ptr.186" = type { %"struct.std::__uniq_ptr_data.187" }
%"struct.std::__uniq_ptr_data.187" = type { %"class.std::__uniq_ptr_impl.188" }
%"class.std::__uniq_ptr_impl.188" = type { %"class.std::tuple.189" }
%"class.std::tuple.189" = type { %"struct.std::_Tuple_impl.190" }
%"struct.std::_Tuple_impl.190" = type { %"struct.std::_Head_base.193" }
%"struct.std::_Head_base.193" = type { ptr }
%"class.std::unique_ptr.194" = type { %"struct.std::__uniq_ptr_data.195" }
%"struct.std::__uniq_ptr_data.195" = type { %"class.std::__uniq_ptr_impl.196" }
%"class.std::__uniq_ptr_impl.196" = type { %"class.std::tuple.197" }
%"class.std::tuple.197" = type { %"struct.std::_Tuple_impl.198" }
%"struct.std::_Tuple_impl.198" = type { %"struct.std::_Head_base.201" }
%"struct.std::_Head_base.201" = type { ptr }
%"class.std::unique_ptr.202" = type { %"struct.std::__uniq_ptr_data.203" }
%"struct.std::__uniq_ptr_data.203" = type { %"class.std::__uniq_ptr_impl.204" }
%"class.std::__uniq_ptr_impl.204" = type { %"class.std::tuple.205" }
%"class.std::tuple.205" = type { %"struct.std::_Tuple_impl.206" }
%"struct.std::_Tuple_impl.206" = type { %"struct.std::_Head_base.209" }
%"struct.std::_Head_base.209" = type { ptr }
%"class.std::unique_ptr.210" = type { %"struct.std::__uniq_ptr_data.211" }
%"struct.std::__uniq_ptr_data.211" = type { %"class.std::__uniq_ptr_impl.212" }
%"class.std::__uniq_ptr_impl.212" = type { %"class.std::tuple.213" }
%"class.std::tuple.213" = type { %"struct.std::_Tuple_impl.214" }
%"struct.std::_Tuple_impl.214" = type { %"struct.std::_Head_base.217" }
%"struct.std::_Head_base.217" = type { ptr }
%"class.std::unique_ptr.218" = type { %"struct.std::__uniq_ptr_data.219" }
%"struct.std::__uniq_ptr_data.219" = type { %"class.std::__uniq_ptr_impl.220" }
%"class.std::__uniq_ptr_impl.220" = type { %"class.std::tuple.221" }
%"class.std::tuple.221" = type { %"struct.std::_Tuple_impl.222" }
%"struct.std::_Tuple_impl.222" = type { %"struct.std::_Head_base.225" }
%"struct.std::_Head_base.225" = type { ptr }
%"class.std::unique_ptr.226" = type { %"struct.std::__uniq_ptr_data.227" }
%"struct.std::__uniq_ptr_data.227" = type { %"class.std::__uniq_ptr_impl.228" }
%"class.std::__uniq_ptr_impl.228" = type { %"class.std::tuple.229" }
%"class.std::tuple.229" = type { %"struct.std::_Tuple_impl.230" }
%"struct.std::_Tuple_impl.230" = type { %"struct.std::_Head_base.233" }
%"struct.std::_Head_base.233" = type { ptr }
%"class.std::unique_ptr.234" = type { %"struct.std::__uniq_ptr_data.235" }
%"struct.std::__uniq_ptr_data.235" = type { %"class.std::__uniq_ptr_impl.236" }
%"class.std::__uniq_ptr_impl.236" = type { %"class.std::tuple.237" }
%"class.std::tuple.237" = type { %"struct.std::_Tuple_impl.238" }
%"struct.std::_Tuple_impl.238" = type { %"struct.std::_Head_base.241" }
%"struct.std::_Head_base.241" = type { ptr }
%"class.std::unique_ptr.242" = type { %"struct.std::__uniq_ptr_data.243" }
%"struct.std::__uniq_ptr_data.243" = type { %"class.std::__uniq_ptr_impl.244" }
%"class.std::__uniq_ptr_impl.244" = type { %"class.std::tuple.245" }
%"class.std::tuple.245" = type { %"struct.std::_Tuple_impl.246" }
%"struct.std::_Tuple_impl.246" = type { %"struct.std::_Head_base.249" }
%"struct.std::_Head_base.249" = type { ptr }
%"class.std::unique_ptr.250" = type { %"struct.std::__uniq_ptr_data.251" }
%"struct.std::__uniq_ptr_data.251" = type { %"class.std::__uniq_ptr_impl.252" }
%"class.std::__uniq_ptr_impl.252" = type { %"class.std::tuple.253" }
%"class.std::tuple.253" = type { %"struct.std::_Tuple_impl.254" }
%"struct.std::_Tuple_impl.254" = type { %"struct.std::_Head_base.257" }
%"struct.std::_Head_base.257" = type { ptr }
%"struct.cvc5::internal::options::HolderBASE" = type <{ %"class.cvc5::internal::ManagedErr", i8, [7 x i8], %"class.cvc5::internal::ManagedIn", i8, i8, i8, i8, i32, i8, [7 x i8], %"class.cvc5::internal::ManagedOut", i8, i8, i8, i8, i8, [3 x i8], i64, i8, [7 x i8], i64, i8, i8, i8, i8, i8, i8, i8, i8, i8, i8, i8, [5 x i8], i64, i8, [7 x i8], i64, i8, [7 x i8], i64, i8, [7 x i8], %"class.std::bitset", i8, [7 x i8], %"class.std::vector.397", i8, [7 x i8] }>
%"class.cvc5::internal::ManagedErr" = type { %"class.cvc5::internal::ManagedStream" }
%"class.cvc5::internal::ManagedStream" = type { ptr, ptr, %"class.std::shared_ptr", %"class.std::__cxx11::basic_string" }
%"class.std::shared_ptr" = type { %"class.std::__shared_ptr" }
%"class.std::__shared_ptr" = type { ptr, %"class.std::__shared_count" }
%"class.std::__shared_count" = type { ptr }
%"class.cvc5::internal::ManagedIn" = type { %"class.cvc5::internal::ManagedStream.733" }
%"class.cvc5::internal::ManagedStream.733" = type { ptr, ptr, %"class.std::shared_ptr.734", %"class.std::__cxx11::basic_string" }
%"class.std::shared_ptr.734" = type { %"class.std::__shared_ptr.735" }
%"class.std::__shared_ptr.735" = type { ptr, %"class.std::__shared_count" }
%"class.cvc5::internal::ManagedOut" = type { %"class.cvc5::internal::ManagedStream" }
%"class.std::bitset" = type { %"struct.std::_Base_bitset" }
%"struct.std::_Base_bitset" = type { i64 }

; Function Attrs: mustprogress uwtable
define hidden noundef zeroext i1 @_ZNK4cvc58internal3smt11SygusSolver19usingSygusSubsolverEv(ptr noundef nonnull align 8 dereferenceable(456) %this) #4 align 2 {
entry:
  %this.addr = alloca ptr, align 8
  store ptr %this, ptr %this.addr, align 8
  %this1 = load ptr, ptr %this.addr, align 8
  %call = call noundef nonnull align 8 dereferenceable(392) ptr @_ZNK4cvc58internal6EnvObj7optionsEv(ptr noundef nonnull align 8 dereferenceable(16) %this1)
  %base = getelementptr inbounds %"class.cvc5::internal::Options", ptr %call, i32 0, i32 26
  %0 = load ptr, ptr %base, align 8
  %incrementalSolving = getelementptr inbounds %"struct.cvc5::internal::options::HolderBASE", ptr %0, i32 0, i32 5
  %1 = load i8, ptr %incrementalSolving, align 1
  %tobool = trunc i8 %1 to i1
  ret i1 %tobool
}