; Function Attrs: mustprogress uwtable
define hidden noundef zeroext i1 @_ZNK4cvc58internal3smt11SygusSolver19usingSygusSubsolverEv(ptr noundef nonnull align 8 dereferenceable(456) %this) local_unnamed_addr #3 align 2 {
entry:
  %call = tail call noundef nonnull align 8 dereferenceable(392) ptr @_ZNK4cvc58internal6EnvObj7optionsEv(ptr noundef nonnull align 8 dereferenceable(16) %this)
  %base = getelementptr inbounds i8, ptr %call, i64 208
  %0 = load ptr, ptr %base, align 8
  %incrementalSolving = getelementptr inbounds i8, ptr %0, i64 137
  %1 = load i8, ptr %incrementalSolving, align 1
  %2 = and i8 %1, 1
  %tobool = icmp ne i8 %2, 0
  ret i1 %tobool
}